Certificate:
    Data:
        Version: 3 (0x2)
        Serial Number:
            64:eb:91:e7:44:66:12:8c:ab:32:d5:00:02:a3:c3:0c
        Signature Algorithm: sha256WithRSAEncryption
        Issuer: CN=qq.yindaheng98.site
        Validity
            Not Before: Jan 20 13:33:12 2022 GMT
            Not After : Apr 24 13:33:12 2024 GMT
        Subject: CN=client
        Subject Public Key Info:
            Public Key Algorithm: rsaEncryption
                RSA Public-Key: (2048 bit)
                Modulus:
                    00:c4:f2:29:17:d7:ec:75:fe:7b:78:98:73:8f:69:
                    a6:3e:71:ea:b8:90:3b:a6:02:5f:b7:c9:af:e5:c9:
                    a2:78:65:dc:eb:f9:6c:bb:b8:fc:62:4a:28:48:2d:
                    b0:d0:5d:8e:56:63:7c:4f:5b:30:ad:ba:76:1f:2b:
                    b8:29:81:ed:44:2e:2b:7b:c6:54:25:9a:3b:3c:42:
                    a1:41:73:40:d0:c6:20:d6:50:0c:f9:f6:3b:34:a9:
                    02:15:02:90:68:5f:d8:88:24:26:20:a7:d1:1d:11:
                    64:67:aa:8d:79:8a:24:9a:d7:16:25:4b:c8:0c:e5:
                    9f:8c:a1:42:83:f5:4a:33:72:a5:9a:95:89:dd:09:
                    3d:5e:cc:da:54:7d:9d:b0:db:c2:d9:5b:23:f4:9e:
                    2a:85:b0:fd:e3:05:20:55:1a:cd:b8:c7:d0:7c:cc:
                    db:79:dd:f8:5f:08:56:10:b9:7e:73:a5:67:15:4e:
                    53:1f:10:67:c2:87:b2:b5:e5:51:8e:e2:72:6b:7f:
                    ed:32:0a:de:39:ca:9c:4d:7c:c7:05:22:2d:18:54:
                    50:e1:7a:a0:e7:42:19:26:bd:28:e6:6a:74:de:69:
                    4e:44:eb:5c:d6:65:93:b2:eb:9e:97:e0:3b:0f:4c:
                    86:6e:8b:99:11:9b:8e:89:54:df:1d:5f:23:10:52:
                    2b:81
                Exponent: 65537 (0x10001)
        X509v3 extensions:
            X509v3 Basic Constraints: 
                CA:FALSE
            X509v3 Subject Key Identifier: 
                E2:0B:AB:84:EB:24:A3:4A:8D:9C:50:DC:CF:08:F9:46:72:44:EF:55
            X509v3 Authority Key Identifier: 
                keyid:A4:C5:D2:7E:8F:13:D6:0E:68:59:CE:D5:B0:F1:03:F4:1B:53:1A:D2
                DirName:/CN=qq.yindaheng98.site
                serial:4B:C8:E4:DF:2B:41:9A:4E:10:54:31:45:5C:4E:A5:0B:0F:40:01:AC

            X509v3 Extended Key Usage: 
                TLS Web Client Authentication
            X509v3 Key Usage: 
                Digital Signature
    Signature Algorithm: sha256WithRSAEncryption
         c5:27:00:52:c3:08:eb:2d:58:d2:3d:9b:8c:9f:25:e3:de:a0:
         c5:71:8e:87:f7:07:48:1f:bc:10:58:72:f1:e8:ba:37:ad:83:
         e6:78:21:9b:bc:67:f3:cb:4f:c7:87:6f:74:73:eb:28:e3:7d:
         04:ed:63:af:55:a5:ae:67:38:15:3e:61:55:02:d4:c4:82:94:
         00:fe:31:10:0d:67:34:56:26:b4:ec:f6:9c:31:84:1c:5b:9f:
         65:b6:c6:7f:88:5b:3d:b3:b8:d4:bd:9d:bb:cd:6b:68:63:d4:
         c9:d6:be:5c:99:34:38:3a:0c:1e:c9:b1:2e:44:e7:c0:2f:48:
         d3:0a:67:58:30:22:9c:65:66:6a:6c:62:51:b9:e4:29:ec:ca:
         c8:ab:b2:12:f1:93:23:ca:22:87:4a:40:4d:e9:04:24:93:f4:
         50:ee:07:30:59:0f:a7:95:b9:67:41:7a:01:69:0c:d9:54:a8:
         65:b5:08:8a:90:00:de:d8:d0:90:2d:34:e7:cb:2e:a0:16:cf:
         2b:e3:94:95:85:b8:95:40:09:ab:0f:47:8a:e6:6f:b1:d3:91:
         ec:c0:96:68:4d:98:b2:17:0f:a2:13:74:6d:4c:c3:ab:00:2f:
         8f:af:fa:de:d8:9c:a0:2b:69:0e:b2:b1:ee:9b:9e:6b:60:c4:
         96:34:9b:2d
-----BEGIN CERTIFICATE-----
MIIDZDCCAkygAwIBAgIQZOuR50RmEoyrMtUAAqPDDDANBgkqhkiG9w0BAQsFADAe
MRwwGgYDVQQDDBNxcS55aW5kYWhlbmc5OC5zaXRlMB4XDTIyMDEyMDEzMzMxMloX
DTI0MDQyNDEzMzMxMlowETEPMA0GA1UEAwwGY2xpZW50MIIBIjANBgkqhkiG9w0B
AQEFAAOCAQ8AMIIBCgKCAQEAxPIpF9fsdf57eJhzj2mmPnHquJA7pgJft8mv5cmi
eGXc6/lsu7j8YkooSC2w0F2OVmN8T1swrbp2Hyu4KYHtRC4re8ZUJZo7PEKhQXNA
0MYg1lAM+fY7NKkCFQKQaF/YiCQmIKfRHRFkZ6qNeYokmtcWJUvIDOWfjKFCg/VK
M3KlmpWJ3Qk9XszaVH2dsNvC2Vsj9J4qhbD94wUgVRrNuMfQfMzbed34XwhWELl+
c6VnFU5THxBnwoeyteVRjuJya3/tMgreOcqcTXzHBSItGFRQ4Xqg50IZJr0o5mp0
3mlOROtc1mWTsuuel+A7D0yGbouZEZuOiVTfHV8jEFIrgQIDAQABo4GqMIGnMAkG
A1UdEwQCMAAwHQYDVR0OBBYEFOILq4TrJKNKjZxQ3M8I+UZyRO9VMFkGA1UdIwRS
MFCAFKTF0n6PE9YOaFnO1bDxA/QbUxrSoSKkIDAeMRwwGgYDVQQDDBNxcS55aW5k
YWhlbmc5OC5zaXRlghRLyOTfK0GaThBUMUVcTqULD0ABrDATBgNVHSUEDDAKBggr
BgEFBQcDAjALBgNVHQ8EBAMCB4AwDQYJKoZIhvcNAQELBQADggEBAMUnAFLDCOst
WNI9m4yfJePeoMVxjof3B0gfvBBYcvHoujetg+Z4IZu8Z/PLT8eHb3Rz6yjjfQTt
Y69Vpa5nOBU+YVUC1MSClAD+MRANZzRWJrTs9pwxhBxbn2W2xn+IWz2zuNS9nbvN
a2hj1MnWvlyZNDg6DB7JsS5E58AvSNMKZ1gwIpxlZmpsYlG55CnsysirshLxkyPK
IodKQE3pBCST9FDuBzBZD6eVuWdBegFpDNlUqGW1CIqQAN7Y0JAtNOfLLqAWzyvj
lJWFuJVACasPR4rmb7HTkezAlmhNmLIXD6ITdG1Mw6sAL4+v+t7YnKAraQ6yse6b
nmtgxJY0my0=
-----END CERTIFICATE-----
