Certificate:
    Data:
        Version: 3 (0x2)
        Serial Number:
            28:cc:4c:6c:a1:79:09:a6:39:6f:75:11:8e:00:62:ec
        Signature Algorithm: sha256WithRSAEncryption
        Issuer: CN=qq.yindaheng98.site
        Validity
            Not Before: Jan 20 07:21:57 2022 GMT
            Not After : Apr 24 07:21:57 2024 GMT
        Subject: CN=qq.yindaheng98.site
        Subject Public Key Info:
            Public Key Algorithm: rsaEncryption
                RSA Public-Key: (2048 bit)
                Modulus:
                    00:e9:b8:97:6e:a3:44:4e:ef:35:2e:37:e3:68:90:
                    dd:84:a2:1f:0b:fc:98:65:43:82:59:30:bf:ea:f5:
                    cf:c3:26:15:20:a1:7e:bc:a3:b8:7a:6b:53:7e:60:
                    4c:5e:b9:6f:d5:fe:c1:cb:ee:cf:33:92:df:eb:bc:
                    80:4d:19:d4:89:95:3c:04:56:71:ff:50:bf:7b:bb:
                    4c:5b:c3:16:e0:58:11:df:fa:7a:b8:7d:9f:5c:ea:
                    09:dc:cb:95:00:db:ec:ac:29:3a:0f:45:22:3c:5d:
                    fc:98:d9:7a:f8:a8:d3:a2:69:0b:a9:8f:8f:2f:6b:
                    6c:bf:5c:72:ce:29:f7:7d:79:d0:5a:8f:8a:9c:62:
                    8f:1b:a4:1f:fc:72:8d:ef:3f:c6:ee:f4:3f:8f:1b:
                    af:67:07:45:e8:82:47:65:a4:aa:b1:2c:7a:0e:63:
                    a5:3d:23:42:4b:2b:53:e9:d1:5d:72:56:76:a2:0d:
                    19:9c:fc:b0:e5:ec:f7:37:43:8d:a8:9e:57:7b:60:
                    50:9c:98:38:4b:00:27:c3:9f:ea:8f:c0:d2:69:3a:
                    36:24:04:73:56:d4:40:d4:5f:11:df:2a:2a:61:f4:
                    4f:ff:c2:88:d1:21:9a:8a:0d:20:c1:23:ee:7b:38:
                    52:f4:8c:50:f2:bd:73:42:61:73:68:de:1d:83:55:
                    10:bf
                Exponent: 65537 (0x10001)
        X509v3 extensions:
            X509v3 Basic Constraints: 
                CA:FALSE
            X509v3 Subject Key Identifier: 
                62:41:4B:52:A4:93:6B:FB:DA:B9:9F:88:F8:D3:6B:E0:25:CD:D9:12
            X509v3 Authority Key Identifier: 
                keyid:A4:C5:D2:7E:8F:13:D6:0E:68:59:CE:D5:B0:F1:03:F4:1B:53:1A:D2
                DirName:/CN=qq.yindaheng98.site
                serial:4B:C8:E4:DF:2B:41:9A:4E:10:54:31:45:5C:4E:A5:0B:0F:40:01:AC

            X509v3 Extended Key Usage: 
                TLS Web Server Authentication
            X509v3 Key Usage: 
                Digital Signature, Key Encipherment
            X509v3 Subject Alternative Name: 
                DNS:qq.yindaheng98.site
    Signature Algorithm: sha256WithRSAEncryption
         39:10:97:ee:5b:5d:98:eb:af:f9:14:24:8d:e7:b0:1b:3f:a6:
         c9:c5:14:7d:92:19:7d:31:69:dc:e2:73:30:e6:2d:0f:40:2f:
         85:0c:ed:a5:3e:44:9b:a4:cd:2f:f3:6a:63:0d:66:94:ec:d9:
         c1:a9:a4:2f:27:70:9c:48:d7:46:34:2e:98:1c:2f:88:06:00:
         e1:db:b6:fa:48:67:84:5e:5a:85:05:a2:d1:25:a5:4d:b6:98:
         d2:95:81:c7:73:e9:cf:35:db:1c:97:c3:a9:bf:0e:5e:90:05:
         f8:4e:79:54:f6:94:7d:7b:fe:99:a7:53:2d:e0:f9:67:2c:7f:
         e1:c3:c0:d1:9f:48:d1:70:5c:92:63:a1:78:2c:a7:d3:dd:78:
         a4:e1:bb:55:e0:8e:4f:5e:eb:64:31:20:8f:7a:34:b9:43:1f:
         f3:29:0e:7a:d1:08:c6:75:29:56:2a:25:8a:5b:05:0b:9e:f5:
         7d:93:31:4b:2c:d7:4c:c2:29:94:8f:26:4f:38:fd:dd:05:ef:
         3b:d4:02:ef:7c:6a:e3:d7:0a:e1:92:d3:ea:a3:06:a1:b1:58:
         41:ea:b7:5e:3c:b0:e1:ae:9a:4b:f3:b6:ba:a2:96:24:dd:dd:
         54:0b:71:cf:31:d4:bc:d9:56:47:b5:32:91:f3:96:fd:a6:f3:
         a6:29:3b:e5
-----BEGIN CERTIFICATE-----
MIIDkTCCAnmgAwIBAgIQKMxMbKF5CaY5b3URjgBi7DANBgkqhkiG9w0BAQsFADAe
MRwwGgYDVQQDDBNxcS55aW5kYWhlbmc5OC5zaXRlMB4XDTIyMDEyMDA3MjE1N1oX
DTI0MDQyNDA3MjE1N1owHjEcMBoGA1UEAwwTcXEueWluZGFoZW5nOTguc2l0ZTCC
ASIwDQYJKoZIhvcNAQEBBQADggEPADCCAQoCggEBAOm4l26jRE7vNS4342iQ3YSi
Hwv8mGVDglkwv+r1z8MmFSChfryjuHprU35gTF65b9X+wcvuzzOS3+u8gE0Z1ImV
PARWcf9Qv3u7TFvDFuBYEd/6erh9n1zqCdzLlQDb7KwpOg9FIjxd/JjZevio06Jp
C6mPjy9rbL9ccs4p93150FqPipxijxukH/xyje8/xu70P48br2cHReiCR2WkqrEs
eg5jpT0jQksrU+nRXXJWdqINGZz8sOXs9zdDjaieV3tgUJyYOEsAJ8Of6o/A0mk6
NiQEc1bUQNRfEd8qKmH0T//CiNEhmooNIMEj7ns4UvSMUPK9c0Jhc2jeHYNVEL8C
AwEAAaOByjCBxzAJBgNVHRMEAjAAMB0GA1UdDgQWBBRiQUtSpJNr+9q5n4j402vg
Jc3ZEjBZBgNVHSMEUjBQgBSkxdJ+jxPWDmhZztWw8QP0G1Ma0qEipCAwHjEcMBoG
A1UEAwwTcXEueWluZGFoZW5nOTguc2l0ZYIUS8jk3ytBmk4QVDFFXE6lCw9AAaww
EwYDVR0lBAwwCgYIKwYBBQUHAwEwCwYDVR0PBAQDAgWgMB4GA1UdEQQXMBWCE3Fx
LnlpbmRhaGVuZzk4LnNpdGUwDQYJKoZIhvcNAQELBQADggEBADkQl+5bXZjrr/kU
JI3nsBs/psnFFH2SGX0xadziczDmLQ9AL4UM7aU+RJukzS/zamMNZpTs2cGppC8n
cJxI10Y0LpgcL4gGAOHbtvpIZ4ReWoUFotElpU22mNKVgcdz6c812xyXw6m/Dl6Q
BfhOeVT2lH17/pmnUy3g+Wcsf+HDwNGfSNFwXJJjoXgsp9PdeKThu1Xgjk9e62Qx
II96NLlDH/MpDnrRCMZ1KVYqJYpbBQue9X2TMUss10zCKZSPJk84/d0F7zvUAu98
auPXCuGS0+qjBqGxWEHqt148sOGumkvztrqiliTd3VQLcc8x1LzZVke1MpHzlv2m
86YpO+U=
-----END CERTIFICATE-----
