Certificate:
    Data:
        Version: 3 (0x2)
        Serial Number:
            bc:8c:4c:9c:6c:c7:ab:57:8d:92:21:55:6c:9e:78:f9
        Signature Algorithm: sha256WithRSAEncryption
        Issuer: CN=qq.yindaheng98.site
        Validity
            Not Before: Jan 20 07:35:16 2022 GMT
            Not After : Apr 24 07:35:16 2024 GMT
        Subject: CN=yin
        Subject Public Key Info:
            Public Key Algorithm: rsaEncryption
                RSA Public-Key: (2048 bit)
                Modulus:
                    00:92:0b:14:38:d5:bf:c8:0d:1f:f0:5b:08:a0:6b:
                    80:d1:be:38:25:29:98:1e:29:ab:fc:79:67:d8:ed:
                    d0:b4:e1:f5:05:18:06:ff:3d:27:fe:91:59:c2:e2:
                    ff:19:09:9a:66:1c:74:8e:d0:f5:f0:f1:19:a4:9c:
                    81:d0:54:57:22:bf:52:55:79:62:00:31:9c:02:6b:
                    1a:2e:aa:e7:9b:ba:fa:b6:b5:32:e5:03:0b:5c:5f:
                    f9:7b:0e:9f:ac:3f:5d:1e:6f:8b:03:2b:ab:3a:36:
                    b7:60:ae:49:18:77:8f:ac:f4:00:84:8f:47:3e:28:
                    27:cd:f7:62:0b:c2:d2:9e:eb:1e:9f:cd:5c:db:5b:
                    e7:04:39:6d:ea:f7:2d:21:15:85:c7:7a:ac:d3:7a:
                    cb:09:b8:9a:21:68:04:56:3a:a2:e5:6b:1b:45:f7:
                    a1:73:16:5f:08:76:77:d2:7d:24:ee:3e:c4:ac:4e:
                    55:48:61:78:5f:3e:2e:fd:65:ef:3a:29:24:90:f6:
                    68:fd:ef:e1:37:a6:70:1c:18:7a:68:b7:f2:3d:17:
                    5e:9e:21:ea:a1:4d:d3:d0:01:5e:d6:ff:bd:34:62:
                    2a:98:df:e5:3b:f7:40:0f:62:7e:96:6a:3b:5c:0c:
                    65:e8:cf:d9:5b:a5:71:6d:fc:ff:0d:9c:8b:f6:28:
                    47:d5
                Exponent: 65537 (0x10001)
        X509v3 extensions:
            X509v3 Basic Constraints: 
                CA:FALSE
            X509v3 Subject Key Identifier: 
                47:2E:75:4A:FC:D3:A2:4A:80:BD:D3:4A:74:1F:FE:A3:C3:C6:C1:95
            X509v3 Authority Key Identifier: 
                keyid:A4:C5:D2:7E:8F:13:D6:0E:68:59:CE:D5:B0:F1:03:F4:1B:53:1A:D2
                DirName:/CN=qq.yindaheng98.site
                serial:4B:C8:E4:DF:2B:41:9A:4E:10:54:31:45:5C:4E:A5:0B:0F:40:01:AC

            X509v3 Extended Key Usage: 
                TLS Web Client Authentication
            X509v3 Key Usage: 
                Digital Signature
    Signature Algorithm: sha256WithRSAEncryption
         a1:db:af:9e:2f:5a:9d:ef:2b:35:7e:1e:a1:5e:09:1b:3e:73:
         24:4e:5d:a1:77:b8:8e:41:fc:6d:1a:cd:2d:25:91:d3:ff:b9:
         10:60:aa:61:db:70:aa:3a:e2:24:b4:82:74:9b:78:8c:e3:9c:
         ff:42:56:d0:55:d5:f0:89:bf:75:81:4c:82:51:df:19:44:31:
         15:25:46:df:43:75:da:69:88:d0:5b:60:11:f5:5d:86:a1:02:
         e0:dc:ff:82:02:15:bc:83:ed:48:2c:7a:1c:9e:0b:81:20:a8:
         27:a3:d4:e0:4d:66:f6:db:2e:9f:bb:c6:32:9a:e1:0f:d0:64:
         f5:00:ae:90:11:7a:89:35:b3:5c:77:41:49:34:0b:a9:f8:2f:
         bf:37:f1:f8:82:11:7f:9c:18:be:1d:7e:ff:70:69:05:31:9b:
         34:77:6f:0f:35:27:a0:a6:ac:62:1a:fb:51:cf:1a:2e:2b:b7:
         4e:9f:2d:41:b0:16:dd:a6:4d:6e:31:d6:04:dc:ad:bc:3e:4d:
         cb:2c:cf:6f:6a:f7:29:d4:cb:b3:90:bc:26:2c:bf:f6:86:5e:
         a3:ef:f0:3d:81:bd:5d:8d:28:ec:a4:89:11:dd:a3:86:e6:14:
         8c:3b:a8:32:fe:6f:00:27:57:36:b5:fe:da:3f:af:c0:98:e1:
         77:0c:58:d1
-----BEGIN CERTIFICATE-----
MIIDYjCCAkqgAwIBAgIRALyMTJxsx6tXjZIhVWyeePkwDQYJKoZIhvcNAQELBQAw
HjEcMBoGA1UEAwwTcXEueWluZGFoZW5nOTguc2l0ZTAeFw0yMjAxMjAwNzM1MTZa
Fw0yNDA0MjQwNzM1MTZaMA4xDDAKBgNVBAMMA3lpbjCCASIwDQYJKoZIhvcNAQEB
BQADggEPADCCAQoCggEBAJILFDjVv8gNH/BbCKBrgNG+OCUpmB4pq/x5Z9jt0LTh
9QUYBv89J/6RWcLi/xkJmmYcdI7Q9fDxGaScgdBUVyK/UlV5YgAxnAJrGi6q55u6
+ra1MuUDC1xf+XsOn6w/XR5viwMrqzo2t2CuSRh3j6z0AISPRz4oJ833YgvC0p7r
Hp/NXNtb5wQ5ber3LSEVhcd6rNN6ywm4miFoBFY6ouVrG0X3oXMWXwh2d9J9JO4+
xKxOVUhheF8+Lv1l7zopJJD2aP3v4TemcBwYemi38j0XXp4h6qFN09ABXtb/vTRi
Kpjf5Tv3QA9ifpZqO1wMZejP2VulcW38/w2ci/YoR9UCAwEAAaOBqjCBpzAJBgNV
HRMEAjAAMB0GA1UdDgQWBBRHLnVK/NOiSoC900p0H/6jw8bBlTBZBgNVHSMEUjBQ
gBSkxdJ+jxPWDmhZztWw8QP0G1Ma0qEipCAwHjEcMBoGA1UEAwwTcXEueWluZGFo
ZW5nOTguc2l0ZYIUS8jk3ytBmk4QVDFFXE6lCw9AAawwEwYDVR0lBAwwCgYIKwYB
BQUHAwIwCwYDVR0PBAQDAgeAMA0GCSqGSIb3DQEBCwUAA4IBAQCh26+eL1qd7ys1
fh6hXgkbPnMkTl2hd7iOQfxtGs0tJZHT/7kQYKph23CqOuIktIJ0m3iM45z/QlbQ
VdXwib91gUyCUd8ZRDEVJUbfQ3XaaYjQW2AR9V2GoQLg3P+CAhW8g+1ILHocnguB
IKgno9TgTWb22y6fu8YymuEP0GT1AK6QEXqJNbNcd0FJNAup+C+/N/H4ghF/nBi+
HX7/cGkFMZs0d28PNSegpqxiGvtRzxouK7dOny1BsBbdpk1uMdYE3K28Pk3LLM9v
avcp1MuzkLwmLL/2hl6j7/A9gb1djSjspIkR3aOG5hSMO6gy/m8AJ1c2tf7aP6/A
mOF3DFjR
-----END CERTIFICATE-----
